target datalayout = "e-m:e-p270:32:32-p271:32:32-p272:64:64-i64:64-i128:128-f80:128-n8:16:32:64-S128"
target triple = "x86_64-pc-linux-gnu"

; Function Attrs: nounwind uwtable
define internal i32 @f(double noundef %0, ptr noundef %1, ptr noundef %2, ptr noundef %3) #0 {
  %5 = alloca double, align 8
  %6 = alloca ptr, align 8
  %7 = alloca ptr, align 8
  %8 = alloca ptr, align 8
  %9 = alloca ptr, align 8
  %10 = alloca double, align 8
  %11 = alloca double, align 8
  %12 = alloca double, align 8
  store double %0, ptr %5, align 8, !tbaa !4
  store ptr %1, ptr %6, align 8, !tbaa !10
  store ptr %2, ptr %7, align 8, !tbaa !10
  store ptr %3, ptr %8, align 8, !tbaa !13
  call void @llvm.lifetime.start.p0(i64 8, ptr %9) #5
  %13 = load ptr, ptr %8, align 8, !tbaa !13
  store ptr %13, ptr %9, align 8, !tbaa !24
  call void @llvm.lifetime.start.p0(i64 8, ptr %10) #5
  %14 = load ptr, ptr %9, align 8, !tbaa !24
  %15 = getelementptr inbounds double, ptr %14, i64 0
  %16 = load double, ptr %15, align 8, !tbaa !4
  store double %16, ptr %10, align 8, !tbaa !4
  call void @llvm.lifetime.start.p0(i64 8, ptr %11) #5
  %17 = load ptr, ptr %9, align 8, !tbaa !24
  %18 = getelementptr inbounds double, ptr %17, i64 1
  %19 = load double, ptr %18, align 8, !tbaa !4
  store double %19, ptr %11, align 8, !tbaa !4
  call void @llvm.lifetime.start.p0(i64 8, ptr %12) #5
  %20 = load ptr, ptr %6, align 8, !tbaa !10
  %21 = call ptr @N_VGetArrayPointer(ptr noundef %20)
  %22 = getelementptr inbounds double, ptr %21, i64 0
  %23 = load double, ptr %22, align 8, !tbaa !4
  store double %23, ptr %12, align 8, !tbaa !4
  %24 = load double, ptr %10, align 8, !tbaa !4
  %25 = load double, ptr %11, align 8, !tbaa !4
  %26 = load double, ptr %5, align 8, !tbaa !4
  %27 = fsub double 1.000000e+01, %26
  %28 = fdiv double %27, 1.000000e+01
  %29 = call double @acos(double noundef -1.000000e+00) #5, !tbaa !14
  %30 = fmul double %28, %29
  %31 = call double @cos(double noundef %30) #5, !tbaa !14
  %32 = fneg double %25
  %33 = call double @llvm.fmuladd.f64(double %32, double %31, double %24)
  %34 = load double, ptr %12, align 8, !tbaa !4
  %35 = load double, ptr %5, align 8, !tbaa !4
  %36 = load double, ptr %5, align 8, !tbaa !4
  %37 = call double @llvm.fmuladd.f64(double %35, double %36, double 1.000000e+00)
  %38 = fdiv double 1.000000e+00, %37
  %39 = call double @llvm.fmuladd.f64(double %33, double %34, double %38)
  %40 = load double, ptr %10, align 8, !tbaa !4
  %41 = load double, ptr %11, align 8, !tbaa !4
  %42 = load double, ptr %5, align 8, !tbaa !4
  %43 = fsub double 1.000000e+01, %42
  %44 = fdiv double %43, 1.000000e+01
  %45 = call double @acos(double noundef -1.000000e+00) #5, !tbaa !14
  %46 = fmul double %44, %45
  %47 = call double @cos(double noundef %46) #5, !tbaa !14
  %48 = fneg double %41
  %49 = call double @llvm.fmuladd.f64(double %48, double %47, double %40)
  %50 = load double, ptr %5, align 8, !tbaa !4
  %51 = call double @atan(double noundef %50) #5, !tbaa !14
  %52 = fneg double %49
  %53 = call double @llvm.fmuladd.f64(double %52, double %51, double %39)
  %54 = load ptr, ptr %7, align 8, !tbaa !10
  %55 = call ptr @N_VGetArrayPointer(ptr noundef %54)
  %56 = getelementptr inbounds double, ptr %55, i64 0
  store double %53, ptr %56, align 8, !tbaa !4
  call void @llvm.lifetime.end.p0(i64 8, ptr %12) #5
  call void @llvm.lifetime.end.p0(i64 8, ptr %11) #5
  call void @llvm.lifetime.end.p0(i64 8, ptr %10) #5
  call void @llvm.lifetime.end.p0(i64 8, ptr %9) #5
  ret i32 0
}