; Function Attrs: nounwind uwtable
define internal noundef i32 @f(double noundef %0, ptr noundef %1, ptr noundef %2, ptr noundef readonly captures(none) %3) #0 {
  %5 = load double, ptr %3, align 8, !tbaa !4
  %6 = getelementptr inbounds nuw i8, ptr %3, i64 8
  %7 = load double, ptr %6, align 8, !tbaa !4
  %8 = tail call ptr @N_VGetArrayPointer(ptr noundef %1) #8
  %9 = load double, ptr %8, align 8, !tbaa !4
  %10 = fsub double 1.000000e+01, %0
  %11 = fdiv double %10, 1.000000e+01
  %12 = fmul double %11, 0x400921FB54442D18
  %13 = tail call double @cos(double noundef %12) #8, !tbaa !14
  %14 = fneg double %7
  %15 = tail call double @llvm.fmuladd.f64(double %14, double %13, double %5)
  %16 = tail call double @llvm.fmuladd.f64(double %0, double %0, double 1.000000e+00)
  %17 = fdiv double 1.000000e+00, %16
  %18 = tail call double @llvm.fmuladd.f64(double %15, double %9, double %17)
  %19 = tail call double @cos(double noundef %12) #8, !tbaa !14
  %20 = tail call double @llvm.fmuladd.f64(double %14, double %19, double %5)
  %21 = tail call double @atan(double noundef %0) #8, !tbaa !14
  %22 = fneg double %20
  %23 = tail call double @llvm.fmuladd.f64(double %22, double %21, double %18)
  %24 = tail call ptr @N_VGetArrayPointer(ptr noundef %2) #8
  store double %23, ptr %24, align 8, !tbaa !4
  ret i32 0
}